; Function Attrs: mustprogress nofree nounwind uwtable
define void @_ZN13hstatus_csr_tC2EP11processor_tm(ptr noundef nonnull writeonly align 8 captures(none) dereferenceable(48) %0, ptr noundef %1, i64 noundef %2) unnamed_addr #14 align 2 {
  %4 = getelementptr inbounds nuw i8, ptr %1, i64 3964
  %5 = load i32, ptr %4, align 4, !tbaa !172
  switch i32 %5, label %7 [
    i32 32, label %_ZN12_GLOBAL__N_111xlen_to_uxlEi.exit
    i32 64, label %6
  ]

6:                                                ; preds = %3
  br label %_ZN12_GLOBAL__N_111xlen_to_uxlEi.exit

7:                                                ; preds = %3
  tail call void @abort() #32
  unreachable

_ZN12_GLOBAL__N_111xlen_to_uxlEi.exit:            ; preds = %3, %6
  %.0.i = phi i64 [ 8589934592, %6 ], [ 4294967296, %3 ]
  %8 = getelementptr inbounds nuw i8, ptr %0, i64 8
  store ptr %1, ptr %8, align 8, !tbaa !6
  %9 = getelementptr inbounds nuw i8, ptr %0, i64 16
  %10 = getelementptr inbounds nuw i8, ptr %1, i64 248
  store ptr %10, ptr %9, align 8, !tbaa !15
  %11 = getelementptr inbounds nuw i8, ptr %0, i64 24
  store i64 %2, ptr %11, align 8, !tbaa !16
  %12 = getelementptr inbounds nuw i8, ptr %0, i64 32
  %13 = trunc i64 %2 to i32
  %14 = lshr i32 %13, 8
  %15 = and i32 %14, 3
  store i32 %15, ptr %12, align 8, !tbaa !17
  %16 = getelementptr inbounds nuw i8, ptr %0, i64 36
  %17 = and i64 %2, 3072
  %18 = icmp eq i64 %17, 3072
  %19 = zext i1 %18 to i8
  store i8 %19, ptr %16, align 4, !tbaa !18
  %20 = getelementptr inbounds nuw i8, ptr %0, i64 40
  store i64 %.0.i, ptr %20, align 8, !tbaa !159
  store ptr getelementptr inbounds nuw inrange(-16, 48) (i8, ptr @_ZTV13hstatus_csr_t, i64 16), ptr %0, align 8, !tbaa !3
  ret void
}